(lp0
(lp1
S'facebook-android-sdk'
p2
aVJava
p3
aI0
aI140
aI16
aI0
aI27
aI4
aI14
aI182
aa(lp4
S'swift'
p5
ag3
aI0
aI29
aI17
aI3
aI10
aI2
aI6
aI63
aa(lp6
S'nifty'
p7
ag3
aI0
aI43
aI19
aI4
aI9
aI1
aI4
aI89
aa(lp8
S'jcommon'
p9
ag3
aI0
aI10
aI13
aI2
aI16
aI0
aI15
aI42
aa(lp10
S'giraph'
p11
ag3
aI0
aI2
aI0
aI0
aI0
aI0
aI0
aI1
aa(lp12
S'buck'
p13
ag3
aI13
aI84
aI990
aI139
aI127
aI176
aI944
aI444
aa(lp14
S'rebound'
p15
ag3
aI0
aI86
aI1
aI1
aI0
aI1
aI0
aI472
aa(lp16
S'easymock'
p17
ag3
aI0
aI1
aI0
aI0
aI0
aI0
aI0
aI6
aa(lp18
S'conceal'
p19
ag3
aI1
aI55
aI130
aI36
aI65
aI11
aI41
aI245
aa(lp20
S'proguard'
p21
ag3
aI0
aI11
aI0
aI0
aI0
aI0
aI0
aI42
aa(lp22
S'powermock'
p23
ag3
aI0
aI1
aI0
aI0
aI0
aI0
aI0
aI3
aa(lp24
S'stetho'
p25
ag3
aI0
aI123
aI147
aI55
aI43
aI23
aI18
aI1051
aa(lp26
S'shimmer-android'
p27
ag3
aI0
aI44
aI2
aI2
aI0
aI0
aI0
aI190
aa(lp28
S'fresco'
p29
ag3
aI0
aI613
aI1035
aI435
aI120
aI22
aI120
aI1731
aa(lp30
S'device-year-class'
p31
ag3
aI0
aI22
aI2
aI4
aI0
aI0
aI0
aI163
aa(lp32
S'network-connection-class'
p33
ag3
aI0
aI55
aI2
aI3
aI0
aI0
aI0
aI204
aa(lp34
S'screenshot-tests-for-android'
p35
ag3
aI0
aI24
aI61
aI12
aI14
aI18
aI19
aI88
aa(lp36
S'robolectric'
p37
ag3
aI0
aI3
aI0
aI0
aI0
aI0
aI0
aI8
aa(lp38
S'SoLoader'
p39
ag3
aI0
aI4
aI0
aI0
aI0
aI0
aI2
aI39
aa(lp40
S'facebook-java-ads-sdk'
p41
ag3
aI2
aI29
aI46
aI25
aI8
aI2
aI11
aI35
aa(lp42
S'pop'
p43
aVObjective-C++
p44
aI0
aI341
aI59
aI29
aI13
aI1
aI9
aI1472
aa(lp45
S'AsyncDisplayKit'
p46
ag44
aI16
aI314
aI1581
aI428
aI757
aI816
aI418
aI1198
aa(lp47
S'componentkit'
p48
ag44
aI2
aI65
aI207
aI76
aI109
aI41
aI37
aI320
aa(lp49
S'node-haste'
p50
aVJavaScript
p51
aI3
aI24
aI156
aI9
aI62
aI96
aI90
aI53
aa(lp52
S'commoner'
p53
ag51
aI0
aI0
aI0
aI0
aI0
aI0
aI0
aI4
aa(lp54
S'emitter'
p55
ag51
aI0
aI16
aI24
aI6
aI7
aI0
aI5
aI55
aa(lp56
S'react'
p57
ag51
aI19
aI1941
aI5479
aI1031
aI904
aI740
aI402
aI8349
aa(lp58
S'react-devtools'
p59
ag51
aI0
aI69
aI280
aI68
aI34
aI25
aI16
aI527
aa(lp60
S'regenerator'
p61
ag51
aI0
aI24
aI24
aI12
aI5
aI0
aI0
aI161
aa(lp62
S'jest'
p63
ag51
aI3
aI109
aI1540
aI366
aI321
aI230
aI167
aI620
aa(lp64
S'puewue-frontend'
p65
ag51
aI0
aI3
aI0
aI0
aI0
aI0
aI0
aI7
aa(lp66
S'planout'
p67
ag51
aI2
aI15
aI32
aI6
aI34
aI4
aI21
aI54
aa(lp68
S'shortcuts-for-framer'
p69
ag51
aI0
aI5
aI0
aI0
aI0
aI0
aI0
aI32
aa(lp70
S'immutable-js'
p71
ag51
aI2
aI154
aI464
aI185
aI85
aI19
aI161
aI2359
aa(lp72
S'flux'
p73
ag51
aI0
aI705
aI159
aI40
aI35
aI11
aI19
aI1628
aa(lp74
S'rebound-js'
p75
ag51
aI0
aI16
aI0
aI0
aI1
aI0
aI0
aI269
aa(lp76
S'react-native'
p77
ag51
aI446
aI2464
aI19671
aI2829
aI2179
aI2383
aI1971
aI7533
aa(lp78
S'fixed-data-table'
p79
ag51
aI0
aI126
aI176
aI59
aI8
aI0
aI0
aI541
aa(lp80
S'nuclide'
p81
ag51
aI11
aI87
aI798
aI312
aI57
aI16
aI1165
aI863
aa(lp82
S'jscodeshift'
p83
ag51
aI8
aI27
aI112
aI23
aI43
aI16
aI31
aI459
aa(lp84
S'react-native-applinks'
p85
ag51
aI0
aI2
aI1
aI3
aI1
aI0
aI2
aI47
aa(lp86
S'fbjs'
p87
ag51
aI0
aI37
aI175
aI29
aI67
aI30
aI48
aI171
aa(lp88
S'Recipes-for-AutoPkg'
p89
ag51
aI0
aI1
aI2
aI2
aI0
aI0
aI2
aI3
aa(lp90
S'relay'
p91
ag51
aI55
aI159
aI1855
aI344
aI432
aI212
aI411
aI1050
aa(lp92
S'dataloader'
p93
ag51
aI1
aI19
aI25
aI15
aI14
aI0
aI17
aI354
aa(lp94
S'mention-bot'
p95
ag51
aI0
aI52
aI157
aI22
aI60
aI18
aI21
aI482
aa(lp96
S'draft-js'
p97
ag51
aI10
aI379
aI1509
aI380
aI257
aI169
aI169
aI6241
aa(lp98
S'fbnn'
p99
aVLua
p100
aI0
aI5
aI0
aI0
aI0
aI0
aI0
aI41
aa(lp101
S'SCRNNs'
p102
ag100
aI0
aI10
aI1
aI2
aI0
aI0
aI0
aI45
aa(lp103
S'CParser'
p104
ag100
aI0
aI2
aI0
aI0
aI0
aI0
aI0
aI20
aa(lp105
S'eyescream'
p106
ag100
aI0
aI14
aI5
aI0
aI0
aI0
aI0
aI80
aa(lp107
S'NAMAS'
p108
ag100
aI0
aI33
aI16
aI9
aI0
aI0
aI0
aI108
aa(lp109
S'bAbI-tasks'
p110
ag100
aI0
aI23
aI1
aI0
aI1
aI0
aI3
aI56
aa(lp111
S'fb-caffe-exts'
p112
ag100
aI0
aI20
aI30
aI14
aI0
aI0
aI2
aI89
aa(lp113
S'learningSimpleAlgorithms'
p114
ag100
aI0
aI2
aI0
aI0
aI0
aI0
aI0
aI21
aa(lp115
S'MazeBase'
p116
ag100
aI0
aI12
aI3
aI1
aI6
aI0
aI10
aI86
aa(lp117
S'fb.resnet.torch'
p118
ag100
aI0
aI124
aI122
aI65
aI8
aI0
aI12
aI489
aa(lp119
S'pose-aligned-deep-networks'
p120
aVMatlab
p121
aI0
aI1
aI0
aI0
aI0
aI0
aI0
aI6
aa(lp122
S'MemNN'
p123
ag121
aI0
aI34
aI3
aI2
aI0
aI0
aI1
aI110
aa(lp124
S'facebook-sdk-for-unity'
p125
aVC#
p126
aI0
aI11
aI18
aI11
aI0
aI0
aI2
aI19
aa(lp127
S'caf8teen'
p128
aVProcessing
p129
aI0
aI1
aI0
aI0
aI0
aI0
aI0
aI2
aa(lp130
S'chef-utils'
p131
aVRuby
p132
aI0
aI3
aI1
aI1
aI3
aI0
aI1
aI17
aa(lp133
S'puewue-backend'
p134
ag132
aI0
aI1
aI0
aI0
aI0
aI0
aI0
aI6
aa(lp135
S'Specs'
p136
ag132
aI0
aI1
aI0
aI0
aI0
aI0
aI0
aI1
aa(lp137
S'grocery-delivery'
p138
ag132
aI0
aI2
aI6
aI2
aI0
aI0
aI0
aI6
aa(lp139
S'taste-tester'
p140
ag132
aI0
aI6
aI15
aI2
aI10
aI1
aI4
aI3
aa(lp141
S'between-meals'
p142
ag132
aI0
aI2
aI1
aI0
aI0
aI0
aI0
aI2
aa(lp143
S'homebrew-fb'
p144
ag132
aI0
aI1
aI0
aI0
aI0
aI0
aI6
aI4
aa(lp145
S'facebook-oss-pom'
p146
aVXML
p147
aI0
aI1
aI2
aI0
aI2
aI0
aI1
aI1
aa(lp148
S'flashcache'
p149
aVC
p150
aI0
aI21
aI14
aI1
aI4
aI0
aI0
aI70
aa(lp151
S'watchman'
p152
ag150
aI0
aI47
aI215
aI37
aI51
aI3
aI41
aI545
aa(lp153
S'libphenom'
p154
ag150
aI0
aI27
aI1
aI0
aI2
aI0
aI2
aI77
aa(lp155
S'fishhook'
p156
ag150
aI0
aI21
aI16
aI5
aI6
aI2
aI3
aI147
aa(lp157
S'glusterfs'
p158
ag150
aI0
aI4
aI0
aI0
aI0
aI0
aI0
aI2
aa(lp159
S'liblogfaf'
p160
ag150
aI0
aI4
aI0
aI0
aI0
aI0
aI0
aI21
aa(lp161
S'css-layout'
p162
ag150
aI0
aI62
aI98
aI26
aI26
aI5
aI8
aI416
aa(lp163
S'fb-adb'
p164
ag150
aI0
aI10
aI12
aI0
aI4
aI0
aI6
aI67
aa(lp165
S'tac_plus'
p166
ag150
aI0
aI3
aI0
aI0
aI0
aI0
aI0
aI5
aa(lp167
S'libafdt'
p168
ag150
aI0
aI5
aI0
aI0
aI0
aI0
aI0
aI10
aa(lp169
S'openbmc'
p170
ag150
aI0
aI16
aI27
aI11
aI11
aI5
aI6
aI42
aa(lp171
S'android-jsc'
p172
ag150
aI0
aI4
aI14
aI6
aI8
aI0
aI4
aI16
aa(lp173
S'ztorch'
p174
ag150
aI0
aI2
aI1
aI1
aI0
aI0
aI0
aI2
aa(lp175
S'luaffifb'
p176
ag150
aI0
aI6
aI34
aI10
aI2
aI0
aI4
aI14
aa(lp177
S'ocpjbod'
p178
ag150
aI0
aI1
aI0
aI0
aI0
aI0
aI1
aI1
aa(lp179
S'transform'
p180
ag150
aI0
aI88
aI24
aI14
aI2
aI0
aI1
aI343
aa(lp181
S'dfuse'
p182
aVD
p183
aI0
aI3
aI0
aI0
aI1
aI0
aI0
aI3
aa(lp184
S'hhvm'
p185
aVC++
p186
aI50
aI161
aI1365
aI516
aI226
aI18
aI629
aI545
aa(lp187
S'pyre2'
p188
ag186
aI0
aI8
aI14
aI0
aI6
aI0
aI3
aI25
aa(lp189
S'folly'
p190
ag186
aI7
aI219
aI144
aI59
aI41
aI3
aI291
aI941
aa(lp191
S'rocksdb'
p192
ag186
aI6
aI164
aI608
aI163
aI168
aI97
aI405
aI756
aa(lp193
S'mysql-5.6'
p194
ag186
aI5
aI30
aI428
aI203
aI5
aI0
aI236
aI96
aa(lp195
S'fbthrift'
p196
ag186
aI0
aI33
aI29
aI19
aI24
aI3
aI166
aI117
aa(lp197
S'mcrouter'
p198
ag186
aI0
aI27
aI79
aI30
aI3
aI0
aI134
aI127
aa(lp199
S'bistro'
p200
ag186
aI0
aI4
aI5
aI2
aI0
aI0
aI0
aI57
aa(lp201
S'facebook-clang-plugins'
p202
ag186
aI0
aI5
aI2
aI1
aI1
aI0
aI15
aI20
aa(lp203
S'thpp'
p204
ag186
aI0
aI10
aI18
aI1
aI4
aI0
aI3
aI13
aa(lp205
S'fblualib'
p206
ag186
aI0
aI33
aI27
aI4
aI8
aI0
aI7
aI54
aa(lp207
S'wdt'
p208
ag186
aI3
aI27
aI29
aI20
aI8
aI0
aI40
aI174
aa(lp209
S'osquery'
p210
ag186
aI4
aI123
aI1148
aI224
aI371
aI286
aI180
aI587
aa(lp211
S'fatal'
p212
ag186
aI0
aI14
aI0
aI0
aI0
aI0
aI18
aI53
aa(lp213
S'proxygen'
p214
ag186
aI0
aI123
aI82
aI29
aI8
aI0
aI119
aI575
aa(lp215
S'ds2'
p216
ag186
aI29
aI8
aI585
aI14
aI371
aI192
aI238
aI27
aa(lp217
S'fbcunn'
p218
ag186
aI0
aI34
aI21
aI9
aI0
aI0
aI0
aI107
aa(lp219
S'wangle'
p220
ag186
aI1
aI101
aI72
aI22
aI22
aI0
aI63
aI1024
aa(lp221
S'squangle'
p222
ag186
aI0
aI10
aI0
aI0
aI1
aI0
aI16
aI21
aa(lp223
S'fboss'
p224
ag186
aI1
aI19
aI39
aI18
aI32
aI11
aI19
aI52
aa(lp225
S'Stack-RNN'
p226
ag186
aI0
aI18
aI0
aI0
aI0
aI0
aI0
aI52
aa(lp227
S'C3D'
p228
ag186
aI0
aI45
aI172
aI108
aI6
aI0
aI4
aI59
aa(lp229
S'xcbuild'
p230
ag186
aI1
aI41
aI59
aI26
aI4
aI0
aI39
aI934
aa(lp231
S'Conditional-character-based-RNN'
p232
ag186
aI0
aI5
aI2
aI0
aI1
aI0
aI0
aI19
aa(lp233
S'UdpPinger'
p234
ag186
aI0
aI11
aI8
aI6
aI2
aI0
aI3
aI58
aa(lp235
S'fb-util-for-appx'
p236
ag186
aI0
aI1
aI1
aI1
aI2
aI0
aI1
aI13
aa(lp237
S'UETorch'
p238
ag186
aI0
aI23
aI25
aI12
aI4
aI2
aI6
aI154
aa(lp239
S'facebook-ios-sdk'
p240
aVObjective-C
p241
aI2
aI135
aI51
aI0
aI37
aI7
aI16
aI252
aa(lp242
S'xctool'
p243
ag241
aI10
aI77
aI230
aI67
aI29
aI4
aI32
aI492
aa(lp244
S'ios-snapshot-test-case'
p245
ag241
aI3
aI35
aI90
aI8
aI22
aI28
aI10
aI219
aa(lp246
S'origami'
p247
ag241
aI0
aI27
aI30
aI13
aI6
aI3
aI19
aI187
aa(lp248
S'Shimmer'
p249
ag241
aI0
aI91
aI15
aI4
aI7
aI7
aI2
aI601
aa(lp250
S'KVOController'
p251
ag241
aI0
aI81
aI69
aI10
aI45
aI15
aI33
aI380
aa(lp252
S'Tweaks'
p253
ag241
aI0
aI31
aI21
aI5
aI8
aI13
aI4
aI270
aa(lp254
S'FBFetchedResultsController'
p255
ag241
aI0
aI1
aI1
aI2
aI0
aI0
aI0
aI24
aa(lp256
S'FLAnimatedImage'
p257
ag241
aI0
aI4
aI0
aI0
aI0
aI0
aI0
aI34
aa(lp258
S'react-native-fbsdk'
p259
ag241
aI0
aI37
aI183
aI89
aI23
aI0
aI9
aI280
aa(lp260
S'WebDriverAgent'
p261
ag241
aI0
aI20
aI272
aI38
aI95
aI12
aI141
aI72
aa(lp262
S'FBSimulatorControl'
p263
ag241
aI0
aI24
aI252
aI22
aI215
aI32
aI486
aI144
aa(lp264
S'graphql'
p265
aVGraphQL
p266
aI1
aI31
aI144
aI43
aI33
aI7
aI83
aI650
aa(lp267
S'fbcuda'
p268
aVCuda
p269
aI0
aI6
aI0
aI0
aI0
aI0
aI1
aI26
aa(lp270
S'fbtorch'
p271
aVCMake
p272
aI0
aI2
aI0
aI0
aI0
aI0
aI2
aI5
aa(lp273
S'jsx'
p274
aVJSX
p275
aI0
aI10
aI29
aI7
aI4
aI0
aI1
aI78
aa(lp276
S'pfff'
p277
aVOCaml
p278
aI0
aI6
aI12
aI3
aI6
aI0
aI6
aI110
aa(lp279
S'flow'
p280
ag278
aI5
aI126
aI1743
aI610
aI284
aI65
aI728
aI1048
aa(lp281
S'infer'
p282
ag278
aI2
aI120
aI640
aI252
aI31
aI20
aI468
aI635
aa(lp283
S'codemod'
p284
aVPython
p285
aI0
aI7
aI0
aI0
aI1
aI0
aI0
aI126
aa(lp286
S'sparts'
p287
ag285
aI0
aI7
aI1
aI6
aI2
aI0
aI4
aI34
aa(lp288
S'hblog'
p289
ag285
aI0
aI1
aI0
aI0
aI0
aI0
aI0
aI9
aa(lp290
S'pyaib'
p291
ag285
aI0
aI4
aI1
aI1
aI0
aI0
aI0
aI8
aa(lp292
S'clang-as-ios-dylib'
p293
ag285
aI0
aI2
aI0
aI0
aI0
aI0
aI0
aI9
aa(lp294
S'chisel'
p295
ag285
aI0
aI65
aI74
aI13
aI18
aI55
aI11
aI515
aa(lp296
S'IT-CPE'
p297
ag285
aI0
aI5
aI1
aI1
aI8
aI0
aI33
aI17
aa(lp298
S'augmented-traffic-control'
p299
ag285
aI0
aI43
aI212
aI49
aI26
aI8
aI15
aI270
aa(lp300
S'facebook-python-ads-sdk'
p301
ag285
aI6
aI38
aI145
aI90
aI29
aI4
aI12
aI48
aa(lp302
S'fbpca'
p303
ag285
aI0
aI6
aI0
aI0
aI0
aI0
aI0
aI18
aa(lp304
S'iTorch'
p305
ag285
aI3
aI28
aI42
aI26
aI4
aI0
aI6
aI160
aa(lp306
S'mysqlclient-python'
p307
ag285
aI0
aI2
aI0
aI0
aI0
aI0
aI0
aI1
aa(lp308
S'ThreatExchange'
p309
ag285
aI0
aI17
aI85
aI16
aI41
aI26
aI28
aI34
aa(lp310
S'PathPicker'
p311
ag285
aI0
aI23
aI34
aI7
aI18
aI7
aI10
aI222
aa(lp312
S'gnlpy'
p313
ag285
aI0
aI8
aI27
aI4
aI25
aI8
aI12
aI16
aa(lp314
S'fbpush'
p315
ag285
aI0
aI0
aI0
aI0
aI0
aI0
aI0
aI6
aa(lp316
S'Haxl'
p317
aVHaskell
p318
aI0
aI22
aI10
aI2
aI4
aI0
aI1
aI259
aa(lp319
S'xhp-lib'
p320
aVHack
p321
aI1
aI3
aI24
aI6
aI0
aI0
aI2
aI36
aa(lp322
S'hack-codegen'
p323
ag321
aI0
aI8
aI10
aI3
aI4
aI3
aI5
aI26
aa(lp324
S'fbtracert'
p325
aVGo
p326
aI0
aI11
aI5
aI1
aI10
aI4
aI5
aI104
aa(lp327
S'open-graph-protocol'
p328
aVPHP
p329
aI0
aI7
aI9
aI0
aI5
aI0
aI3
aI8
aa(lp330
S'php-webdriver'
p331
ag329
aI0
aI29
aI60
aI20
aI12
aI1
aI5
aI125
aa(lp332
S'FBMock'
p333
ag329
aI0
aI3
aI0
aI0
aI0
aI0
aI0
aI8
aa(lp334
S'facebook-php-sdk-v4'
p335
ag329
aI1
aI118
aI127
aI50
aI27
aI25
aI4
aI196
aa(lp336
S'facebook-php-ads-sdk'
p337
ag329
aI0
aI41
aI135
aI56
aI32
aI4
aI19
aI42
aa(lp338
S'facebook-instant-articles-sdk-php'
p339
ag329
aI0
aI12
aI97
aI37
aI101
aI38
aI85
aI47
aa.