(lp0
(lp1
S'facebook-android-sdk'
p2
aVJava
p3
aI0
aI36
aI8
aI0
aI13
aI4
aI7
aI45
aa(lp4
S'swift'
p5
ag3
aI0
aI6
aI11
aI1
aI5
aI0
aI4
aI14
aa(lp6
S'nifty'
p7
ag3
aI0
aI17
aI2
aI2
aI2
aI0
aI3
aI20
aa(lp8
S'jcommon'
p9
ag3
aI0
aI1
aI6
aI0
aI2
aI0
aI3
aI8
aa(lp10
S'giraph'
p11
ag3
aI0
aI0
aI0
aI0
aI0
aI0
aI0
aI0
aa(lp12
S'buck'
p13
ag3
aI0
aI24
aI294
aI49
aI49
aI73
aI200
aI118
aa(lp14
S'rebound'
p15
ag3
aI0
aI21
aI0
aI0
aI0
aI0
aI0
aI107
aa(lp16
S'easymock'
p17
ag3
aI0
aI0
aI0
aI0
aI0
aI0
aI0
aI1
aa(lp18
S'conceal'
p19
ag3
aI0
aI15
aI54
aI10
aI13
aI5
aI10
aI56
aa(lp20
S'proguard'
p21
ag3
aI0
aI2
aI0
aI0
aI0
aI0
aI0
aI13
aa(lp22
S'powermock'
p23
ag3
aI0
aI0
aI0
aI0
aI0
aI0
aI0
aI1
aa(lp24
S'stetho'
p25
ag3
aI0
aI39
aI75
aI23
aI25
aI12
aI11
aI231
aa(lp26
S'shimmer-android'
p27
ag3
aI0
aI12
aI1
aI1
aI0
aI0
aI0
aI56
aa(lp28
S'fresco'
p29
ag3
aI0
aI211
aI329
aI147
aI19
aI4
aI23
aI526
aa(lp30
S'device-year-class'
p31
ag3
aI0
aI5
aI2
aI4
aI0
aI0
aI0
aI30
aa(lp32
S'network-connection-class'
p33
ag3
aI0
aI15
aI2
aI2
aI0
aI0
aI0
aI51
aa(lp34
S'screenshot-tests-for-android'
p35
ag3
aI0
aI4
aI19
aI1
aI1
aI0
aI0
aI19
aa(lp36
S'robolectric'
p37
ag3
aI0
aI1
aI0
aI0
aI0
aI0
aI0
aI3
aa(lp38
S'SoLoader'
p39
ag3
aI0
aI0
aI0
aI0
aI0
aI0
aI0
aI0
aa(lp40
S'facebook-java-ads-sdk'
p41
ag3
aI0
aI7
aI1
aI6
aI0
aI0
aI5
aI10
aa(lp42
S'pop'
p43
aVObjective-C++
p44
aI0
aI75
aI11
aI7
aI2
aI1
aI0
aI360
aa(lp45
S'AsyncDisplayKit'
p46
ag44
aI6
aI76
aI400
aI99
aI155
aI98
aI82
aI335
aa(lp47
S'componentkit'
p48
ag44
aI1
aI15
aI55
aI18
aI30
aI8
aI10
aI68
aa(lp49
S'node-haste'
p50
aVJavaScript
p51
aI0
aI1
aI0
aI0
aI0
aI0
aI17
aI5
aa(lp52
S'commoner'
p53
ag51
aI0
aI0
aI0
aI0
aI0
aI0
aI0
aI0
aa(lp54
S'emitter'
p55
ag51
aI0
aI4
aI19
aI6
aI5
aI0
aI3
aI13
aa(lp56
S'react'
p57
ag51
aI1
aI463
aI1128
aI206
aI172
aI179
aI67
aI2028
aa(lp58
S'react-devtools'
p59
ag51
aI0
aI13
aI65
aI12
aI6
aI4
aI4
aI131
aa(lp60
S'regenerator'
p61
ag51
aI0
aI5
aI7
aI5
aI0
aI0
aI0
aI37
aa(lp62
S'jest'
p63
ag51
aI0
aI23
aI195
aI49
aI25
aI1
aI14
aI127
aa(lp64
S'puewue-frontend'
p65
ag51
aI0
aI0
aI0
aI0
aI0
aI0
aI0
aI1
aa(lp66
S'planout'
p67
ag51
aI0
aI2
aI4
aI0
aI3
aI2
aI1
aI10
aa(lp68
S'shortcuts-for-framer'
p69
ag51
aI0
aI2
aI0
aI0
aI0
aI0
aI0
aI10
aa(lp70
S'immutable-js'
p71
ag51
aI0
aI27
aI104
aI40
aI26
aI0
aI57
aI605
aa(lp72
S'flux'
p73
ag51
aI0
aI209
aI34
aI12
aI14
aI0
aI5
aI496
aa(lp74
S'rebound-js'
p75
ag51
aI0
aI2
aI0
aI0
aI1
aI0
aI0
aI44
aa(lp76
S'react-native'
p77
ag51
aI127
aI634
aI4672
aI740
aI481
aI555
aI454
aI1985
aa(lp78
S'fixed-data-table'
p79
ag51
aI0
aI24
aI35
aI16
aI3
aI0
aI0
aI123
aa(lp80
S'nuclide'
p81
ag51
aI1
aI25
aI242
aI114
aI16
aI0
aI207
aI203
aa(lp82
S'jscodeshift'
p83
ag51
aI0
aI6
aI29
aI4
aI4
aI0
aI5
aI115
aa(lp84
S'react-native-applinks'
p85
ag51
aI0
aI1
aI0
aI2
aI1
aI0
aI2
aI19
aa(lp86
S'fbjs'
p87
ag51
aI0
aI7
aI70
aI8
aI22
aI17
aI12
aI42
aa(lp88
S'Recipes-for-AutoPkg'
p89
ag51
aI0
aI0
aI0
aI0
aI0
aI0
aI0
aI0
aa(lp90
S'relay'
p91
ag51
aI21
aI34
aI327
aI67
aI59
aI56
aI71
aI249
aa(lp92
S'dataloader'
p93
ag51
aI0
aI2
aI6
aI3
aI8
aI0
aI9
aI79
aa(lp94
S'mention-bot'
p95
ag51
aI0
aI15
aI46
aI10
aI18
aI0
aI8
aI87
aa(lp96
S'draft-js'
p97
ag51
aI0
aI0
aI0
aI0
aI0
aI0
aI0
aI0
aa(lp98
S'fbnn'
p99
aVLua
p100
aI0
aI1
aI0
aI0
aI0
aI0
aI0
aI13
aa(lp101
S'SCRNNs'
p102
ag100
aI0
aI2
aI0
aI0
aI0
aI0
aI0
aI5
aa(lp103
S'CParser'
p104
ag100
aI0
aI0
aI0
aI0
aI0
aI0
aI0
aI4
aa(lp105
S'eyescream'
p106
ag100
aI0
aI4
aI0
aI0
aI0
aI0
aI0
aI20
aa(lp107
S'NAMAS'
p108
ag100
aI0
aI9
aI0
aI0
aI0
aI0
aI0
aI17
aa(lp109
S'bAbI-tasks'
p110
ag100
aI0
aI3
aI1
aI0
aI1
aI0
aI3
aI14
aa(lp111
S'fb-caffe-exts'
p112
ag100
aI0
aI3
aI2
aI2
aI0
aI0
aI0
aI6
aa(lp113
S'learningSimpleAlgorithms'
p114
ag100
aI0
aI1
aI0
aI0
aI0
aI0
aI0
aI3
aa(lp115
S'MazeBase'
p116
ag100
aI0
aI3
aI0
aI0
aI0
aI0
aI2
aI53
aa(lp117
S'fb.resnet.torch'
p118
ag100
aI0
aI0
aI0
aI0
aI0
aI0
aI0
aI0
aa(lp119
S'pose-aligned-deep-networks'
p120
aVMatlab
p121
aI0
aI1
aI0
aI0
aI0
aI0
aI0
aI2
aa(lp122
S'MemNN'
p123
ag121
aI0
aI12
aI0
aI0
aI0
aI0
aI1
aI39
aa(lp124
S'facebook-sdk-for-unity'
p125
aVC#
p126
aI0
aI1
aI2
aI3
aI0
aI0
aI0
aI6
aa(lp127
S'caf8teen'
p128
aVProcessing
p129
aI0
aI0
aI0
aI0
aI0
aI0
aI0
aI1
aa(lp130
S'chef-utils'
p131
aVRuby
p132
aI0
aI0
aI0
aI1
aI0
aI0
aI0
aI2
aa(lp133
S'puewue-backend'
p134
ag132
aI0
aI0
aI0
aI0
aI0
aI0
aI0
aI1
aa(lp135
S'Specs'
p136
ag132
aI0
aI0
aI0
aI0
aI0
aI0
aI0
aI1
aa(lp137
S'grocery-delivery'
p138
ag132
aI0
aI0
aI0
aI0
aI0
aI0
aI0
aI1
aa(lp139
S'taste-tester'
p140
ag132
aI0
aI0
aI0
aI0
aI0
aI0
aI0
aI3
aa(lp141
S'between-meals'
p142
ag132
aI0
aI0
aI0
aI0
aI0
aI0
aI0
aI0
aa(lp143
S'homebrew-fb'
p144
ag132
aI0
aI0
aI0
aI0
aI0
aI0
aI2
aI2
aa(lp145
S'facebook-oss-pom'
p146
aVXML
p147
aI0
aI0
aI0
aI0
aI0
aI0
aI0
aI0
aa(lp148
S'flashcache'
p149
aVC
p150
aI0
aI5
aI5
aI0
aI0
aI0
aI0
aI21
aa(lp151
S'watchman'
p152
ag150
aI0
aI10
aI70
aI6
aI13
aI0
aI12
aI152
aa(lp153
S'libphenom'
p154
ag150
aI0
aI8
aI1
aI0
aI1
aI0
aI2
aI27
aa(lp155
S'fishhook'
p156
ag150
aI0
aI2
aI10
aI2
aI2
aI0
aI1
aI24
aa(lp157
S'glusterfs'
p158
ag150
aI0
aI2
aI0
aI0
aI0
aI0
aI0
aI0
aa(lp159
S'liblogfaf'
p160
ag150
aI0
aI0
aI0
aI0
aI0
aI0
aI0
aI5
aa(lp161
S'css-layout'
p162
ag150
aI0
aI17
aI46
aI9
aI9
aI0
aI3
aI142
aa(lp163
S'fb-adb'
p164
ag150
aI0
aI2
aI3
aI0
aI3
aI0
aI1
aI21
aa(lp165
S'tac_plus'
p166
ag150
aI0
aI1
aI0
aI0
aI0
aI0
aI0
aI1
aa(lp167
S'libafdt'
p168
ag150
aI0
aI1
aI0
aI0
aI0
aI0
aI0
aI1
aa(lp169
S'openbmc'
p170
ag150
aI0
aI4
aI1
aI1
aI1
aI0
aI0
aI8
aa(lp171
S'android-jsc'
p172
ag150
aI0
aI2
aI9
aI0
aI4
aI0
aI2
aI4
aa(lp173
S'ztorch'
p174
ag150
aI0
aI1
aI0
aI0
aI0
aI0
aI0
aI0
aa(lp175
S'luaffifb'
p176
ag150
aI0
aI2
aI25
aI4
aI2
aI0
aI3
aI2
aa(lp177
S'ocpjbod'
p178
ag150
aI0
aI1
aI0
aI0
aI0
aI0
aI0
aI1
aa(lp179
S'transform'
p180
ag150
aI0
aI50
aI5
aI1
aI0
aI0
aI0
aI256
aa(lp181
S'dfuse'
p182
aVD
p183
aI0
aI0
aI0
aI0
aI0
aI0
aI0
aI1
aa(lp184
S'hhvm'
p185
aVC++
p186
aI21
aI51
aI401
aI116
aI74
aI5
aI132
aI167
aa(lp187
S'pyre2'
p188
ag186
aI0
aI2
aI0
aI0
aI2
aI0
aI1
aI1
aa(lp189
S'folly'
p190
ag186
aI0
aI61
aI27
aI5
aI11
aI0
aI42
aI433
aa(lp191
S'rocksdb'
p192
ag186
aI1
aI45
aI195
aI47
aI38
aI26
aI94
aI174
aa(lp193
S'mysql-5.6'
p194
ag186
aI0
aI4
aI87
aI38
aI1
aI0
aI40
aI27
aa(lp195
S'fbthrift'
p196
ag186
aI0
aI13
aI5
aI0
aI14
aI3
aI34
aI34
aa(lp197
S'mcrouter'
p198
ag186
aI0
aI7
aI19
aI7
aI0
aI0
aI17
aI25
aa(lp199
S'bistro'
p200
ag186
aI0
aI0
aI3
aI1
aI0
aI0
aI0
aI11
aa(lp201
S'facebook-clang-plugins'
p202
ag186
aI0
aI2
aI0
aI0
aI0
aI0
aI6
aI3
aa(lp203
S'thpp'
p204
ag186
aI0
aI2
aI1
aI0
aI0
aI0
aI0
aI4
aa(lp205
S'fblualib'
p206
ag186
aI0
aI12
aI12
aI3
aI3
aI0
aI2
aI9
aa(lp207
S'wdt'
p208
ag186
aI1
aI4
aI0
aI6
aI0
aI0
aI6
aI83
aa(lp209
S'osquery'
p210
ag186
aI0
aI26
aI229
aI38
aI69
aI37
aI33
aI148
aa(lp211
S'fatal'
p212
ag186
aI0
aI4
aI0
aI0
aI0
aI0
aI3
aI20
aa(lp213
S'proxygen'
p214
ag186
aI0
aI37
aI29
aI9
aI0
aI0
aI26
aI281
aa(lp215
S'ds2'
p216
ag186
aI0
aI2
aI54
aI4
aI79
aI2
aI63
aI2
aa(lp217
S'fbcunn'
p218
ag186
aI0
aI11
aI1
aI3
aI0
aI0
aI0
aI24
aa(lp219
S'wangle'
p220
ag186
aI1
aI36
aI24
aI4
aI10
aI0
aI17
aI454
aa(lp221
S'squangle'
p222
ag186
aI0
aI4
aI0
aI0
aI1
aI0
aI1
aI5
aa(lp223
S'fboss'
p224
ag186
aI1
aI6
aI34
aI17
aI28
aI3
aI15
aI10
aa(lp225
S'Stack-RNN'
p226
ag186
aI0
aI5
aI0
aI0
aI0
aI0
aI0
aI11
aa(lp227
S'C3D'
p228
ag186
aI0
aI15
aI52
aI27
aI5
aI0
aI1
aI8
aa(lp229
S'xcbuild'
p230
ag186
aI0
aI0
aI0
aI0
aI0
aI0
aI0
aI0
aa(lp231
S'Conditional-character-based-RNN'
p232
ag186
aI0
aI2
aI2
aI0
aI1
aI0
aI0
aI4
aa(lp233
S'UdpPinger'
p234
ag186
aI0
aI0
aI0
aI0
aI0
aI0
aI0
aI0
aa(lp235
S'fb-util-for-appx'
p236
ag186
aI0
aI0
aI0
aI0
aI0
aI0
aI0
aI0
aa(lp237
S'UETorch'
p238
ag186
aI0
aI0
aI0
aI0
aI0
aI0
aI0
aI0
aa(lp239
S'facebook-ios-sdk'
p240
aVObjective-C
p241
aI2
aI34
aI19
aI0
aI16
aI4
aI7
aI75
aa(lp242
S'xctool'
p243
ag241
aI0
aI15
aI27
aI15
aI1
aI0
aI0
aI118
aa(lp244
S'ios-snapshot-test-case'
p245
ag241
aI0
aI4
aI10
aI1
aI3
aI8
aI2
aI40
aa(lp246
S'origami'
p247
ag241
aI0
aI4
aI21
aI7
aI0
aI0
aI5
aI40
aa(lp248
S'Shimmer'
p249
ag241
aI0
aI21
aI1
aI0
aI1
aI5
aI0
aI140
aa(lp250
S'KVOController'
p251
ag241
aI0
aI14
aI5
aI3
aI1
aI0
aI0
aI90
aa(lp252
S'Tweaks'
p253
ag241
aI0
aI7
aI8
aI0
aI2
aI0
aI1
aI53
aa(lp254
S'FBFetchedResultsController'
p255
ag241
aI0
aI0
aI0
aI0
aI0
aI0
aI0
aI3
aa(lp256
S'FLAnimatedImage'
p257
ag241
aI0
aI1
aI0
aI0
aI0
aI0
aI0
aI4
aa(lp258
S'react-native-fbsdk'
p259
ag241
aI0
aI8
aI31
aI6
aI2
aI0
aI2
aI39
aa(lp260
S'WebDriverAgent'
p261
ag241
aI0
aI5
aI88
aI11
aI46
aI5
aI52
aI10
aa(lp262
S'FBSimulatorControl'
p263
ag241
aI0
aI6
aI95
aI7
aI89
aI26
aI214
aI39
aa(lp264
S'graphql'
p265
aVGraphQL
p266
aI0
aI9
aI49
aI17
aI5
aI0
aI10
aI175
aa(lp267
S'fbcuda'
p268
aVCuda
p269
aI0
aI1
aI0
aI0
aI0
aI0
aI0
aI1
aa(lp270
S'fbtorch'
p271
aVCMake
p272
aI0
aI1
aI0
aI0
aI0
aI0
aI0
aI1
aa(lp273
S'jsx'
p274
aVJSX
p275
aI0
aI3
aI2
aI0
aI0
aI0
aI0
aI26
aa(lp276
S'pfff'
p277
aVOCaml
p278
aI0
aI1
aI2
aI0
aI4
aI0
aI3
aI30
aa(lp279
S'flow'
p280
ag278
aI0
aI25
aI402
aI157
aI59
aI10
aI102
aI222
aa(lp281
S'infer'
p282
ag278
aI0
aI30
aI125
aI56
aI3
aI0
aI72
aI179
aa(lp283
S'codemod'
p284
aVPython
p285
aI0
aI2
aI0
aI0
aI0
aI0
aI0
aI45
aa(lp286
S'sparts'
p287
ag285
aI0
aI5
aI0
aI0
aI0
aI0
aI0
aI12
aa(lp288
S'hblog'
p289
ag285
aI0
aI0
aI0
aI0
aI0
aI0
aI0
aI6
aa(lp290
S'pyaib'
p291
ag285
aI0
aI2
aI0
aI0
aI0
aI0
aI0
aI1
aa(lp292
S'clang-as-ios-dylib'
p293
ag285
aI0
aI1
aI0
aI0
aI0
aI0
aI0
aI1
aa(lp294
S'chisel'
p295
ag285
aI0
aI16
aI10
aI2
aI5
aI21
aI5
aI135
aa(lp296
S'IT-CPE'
p297
ag285
aI0
aI2
aI0
aI0
aI0
aI0
aI1
aI1
aa(lp298
S'augmented-traffic-control'
p299
ag285
aI0
aI10
aI55
aI9
aI16
aI4
aI8
aI42
aa(lp300
S'facebook-python-ads-sdk'
p301
ag285
aI0
aI9
aI34
aI15
aI9
aI0
aI4
aI8
aa(lp302
S'fbpca'
p303
ag285
aI0
aI3
aI0
aI0
aI0
aI0
aI0
aI6
aa(lp304
S'iTorch'
p305
ag285
aI0
aI7
aI11
aI7
aI2
aI0
aI1
aI36
aa(lp306
S'mysqlclient-python'
p307
ag285
aI0
aI0
aI0
aI0
aI0
aI0
aI0
aI0
aa(lp308
S'ThreatExchange'
p309
ag285
aI0
aI3
aI23
aI6
aI8
aI0
aI3
aI4
aa(lp310
S'PathPicker'
p311
ag285
aI0
aI5
aI18
aI4
aI6
aI2
aI3
aI77
aa(lp312
S'gnlpy'
p313
ag285
aI0
aI4
aI3
aI1
aI11
aI0
aI6
aI3
aa(lp314
S'fbpush'
p315
ag285
aI0
aI0
aI0
aI0
aI0
aI0
aI0
aI3
aa(lp316
S'Haxl'
p317
aVHaskell
p318
aI0
aI5
aI1
aI0
aI1
aI0
aI0
aI60
aa(lp319
S'xhp-lib'
p320
aVHack
p321
aI1
aI0
aI0
aI0
aI0
aI0
aI1
aI11
aa(lp322
S'hack-codegen'
p323
ag321
aI0
aI3
aI10
aI2
aI4
aI3
aI5
aI9
aa(lp324
S'fbtracert'
p325
aVGo
p326
aI0
aI0
aI0
aI0
aI0
aI0
aI0
aI0
aa(lp327
S'open-graph-protocol'
p328
aVPHP
p329
aI0
aI2
aI4
aI0
aI0
aI0
aI0
aI7
aa(lp330
S'php-webdriver'
p331
ag329
aI0
aI6
aI13
aI4
aI4
aI1
aI2
aI36
aa(lp332
S'FBMock'
p333
ag329
aI0
aI0
aI0
aI0
aI0
aI0
aI0
aI3
aa(lp334
S'facebook-php-sdk-v4'
p335
ag329
aI0
aI24
aI29
aI8
aI7
aI0
aI2
aI52
aa(lp336
S'facebook-php-ads-sdk'
p337
ag329
aI0
aI13
aI47
aI17
aI13
aI0
aI7
aI10
aa(lp338
S'facebook-instant-articles-sdk-php'
p339
ag329
aI0
aI0
aI0
aI0
aI0
aI0
aI0
aI0
aa.